target datalayout = "e-m:e-p270:32:32-p271:32:32-p272:64:64-i64:64-i128:128-f80:128-n8:16:32:64-S128"
target triple = "x86_64-pc-linux-gnu"

%struct.archive_read = type { %struct.archive, ptr, i32, i64, i64, %struct.archive_read_client, [16 x %struct.archive_read_filter_bidder], ptr, i32, i64, i32, i32, [16 x %struct.archive_format_descriptor], ptr, ptr, ptr, %struct.anon }
%struct.archive = type { i32, i32, ptr, i32, ptr, i32, i32, ptr, %struct.archive_string, ptr, i32, i32, ptr, ptr, i64, i64, i64, i8, i64 }
%struct.archive_string = type { ptr, i64, i64 }
%struct.archive_read_client = type { ptr, ptr, ptr, ptr, ptr, ptr, i32, i32, i64, ptr }
%struct.archive_read_filter_bidder = type { ptr, ptr, ptr }
%struct.archive_format_descriptor = type { ptr, ptr, ptr, ptr, ptr, ptr, ptr, ptr, ptr, ptr, ptr }
%struct.anon = type { ptr, ptr, i32, ptr, ptr }

@.str.30 = private unnamed_addr constant [24 x i8] c"archive_read_data_block\00", align 1
@.str.31 = private unnamed_addr constant [57 x i8] c"Internal error: No format->read_data function registered\00", align 1

; Function Attrs: nounwind uwtable
define internal i32 @_archive_read_data_block(ptr noundef %0, ptr noundef %1, ptr noundef %2, ptr noundef %3) #0 {
  %5 = alloca i32, align 4
  %6 = alloca ptr, align 8
  %7 = alloca ptr, align 8
  %8 = alloca ptr, align 8
  %9 = alloca ptr, align 8
  %10 = alloca ptr, align 8
  %11 = alloca i32, align 4
  %12 = alloca i32, align 4
  store ptr %0, ptr %6, align 8, !tbaa !31
  store ptr %1, ptr %7, align 8, !tbaa !37
  store ptr %2, ptr %8, align 8, !tbaa !118
  store ptr %3, ptr %9, align 8, !tbaa !118
  call void @llvm.lifetime.start.p0(i64 8, ptr %10) #11
  %13 = load ptr, ptr %6, align 8, !tbaa !31
  store ptr %13, ptr %10, align 8, !tbaa !4
  br label %14

14:                                               ; preds = %4
  call void @llvm.lifetime.start.p0(i64 4, ptr %11) #11
  %15 = load ptr, ptr %6, align 8, !tbaa !31
  %16 = call i32 @__archive_check_magic(ptr noundef %15, i32 noundef 14594245, i32 noundef 4, ptr noundef @.str.30)
  store i32 %16, ptr %11, align 4, !tbaa !38
  %17 = load i32, ptr %11, align 4, !tbaa !38
  %18 = icmp eq i32 %17, -30
  br i1 %18, label %19, label %20

19:                                               ; preds = %14
  store i32 -30, ptr %5, align 4
  store i32 1, ptr %12, align 4
  br label %21

20:                                               ; preds = %14
  store i32 0, ptr %12, align 4
  br label %21

21:                                               ; preds = %20, %19
  call void @llvm.lifetime.end.p0(i64 4, ptr %11) #11
  %22 = load i32, ptr %12, align 4
  switch i32 %22, label %46 [
    i32 0, label %23
  ]

23:                                               ; preds = %21
  br label %24

24:                                               ; preds = %23
  br label %25

25:                                               ; preds = %24
  %26 = load ptr, ptr %10, align 8, !tbaa !4
  %27 = getelementptr inbounds nuw %struct.archive_read, ptr %26, i32 0, i32 13
  %28 = load ptr, ptr %27, align 8, !tbaa !63
  %29 = getelementptr inbounds nuw %struct.archive_format_descriptor, ptr %28, i32 0, i32 5
  %30 = load ptr, ptr %29, align 8, !tbaa !109
  %31 = icmp eq ptr %30, null
  br i1 %31, label %32, label %35

32:                                               ; preds = %25
  %33 = load ptr, ptr %10, align 8, !tbaa !4
  %34 = getelementptr inbounds nuw %struct.archive_read, ptr %33, i32 0, i32 0
  call void (ptr, i32, ptr, ...) @archive_set_error(ptr noundef %34, i32 noundef 22, ptr noundef @.str.31)
  store i32 -30, ptr %5, align 4
  store i32 1, ptr %12, align 4
  br label %46

35:                                               ; preds = %25
  %36 = load ptr, ptr %10, align 8, !tbaa !4
  %37 = getelementptr inbounds nuw %struct.archive_read, ptr %36, i32 0, i32 13
  %38 = load ptr, ptr %37, align 8, !tbaa !63
  %39 = getelementptr inbounds nuw %struct.archive_format_descriptor, ptr %38, i32 0, i32 5
  %40 = load ptr, ptr %39, align 8, !tbaa !109
  %41 = load ptr, ptr %10, align 8, !tbaa !4
  %42 = load ptr, ptr %7, align 8, !tbaa !37
  %43 = load ptr, ptr %8, align 8, !tbaa !118
  %44 = load ptr, ptr %9, align 8, !tbaa !118
  %45 = call i32 %40(ptr noundef %41, ptr noundef %42, ptr noundef %43, ptr noundef %44)
  store i32 %45, ptr %5, align 4
  store i32 1, ptr %12, align 4
  br label %46

46:                                               ; preds = %35, %32, %21
  call void @llvm.lifetime.end.p0(i64 8, ptr %10) #11
  %47 = load i32, ptr %5, align 4
  ret i32 %47
}