; Function Attrs: nounwind uwtable
define internal i32 @_archive_read_data_block(ptr noundef %0, ptr noundef %1, ptr noundef %2, ptr noundef %3) #0 {
  %5 = tail call i32 @__archive_check_magic(ptr noundef %0, i32 noundef 14594245, i32 noundef 4, ptr noundef nonnull @.str.30) #15
  %.not = icmp eq i32 %5, -30
  br i1 %.not, label %15, label %6

6:                                                ; preds = %4
  %7 = getelementptr inbounds nuw i8, ptr %0, i64 2072
  %8 = load ptr, ptr %7, align 8, !tbaa !73
  %9 = getelementptr inbounds nuw i8, ptr %8, i64 40
  %10 = load ptr, ptr %9, align 8, !tbaa !101
  %11 = icmp eq ptr %10, null
  br i1 %11, label %12, label %13

12:                                               ; preds = %6
  tail call void (ptr, i32, ptr, ...) @archive_set_error(ptr noundef nonnull %0, i32 noundef 22, ptr noundef nonnull @.str.31) #15
  br label %15

13:                                               ; preds = %6
  %14 = tail call i32 %10(ptr noundef nonnull %0, ptr noundef %1, ptr noundef %2, ptr noundef %3) #15
  br label %15

15:                                               ; preds = %4, %13, %12
  %.1 = phi i32 [ -30, %12 ], [ %14, %13 ], [ -30, %4 ]
  ret i32 %.1
}